(ilrsgd
LogisticRegressionSGD
p0
(dp1
S'mu'
p2
F0.1
sS'eta'
p3
F0.1
sS'weight'
p4
(lp5
F-0.03245108857694342
aF-0.027917827767369986
aF0.0
aF0.0
aF0.0
aF0.05082975856741061
aF0.03929317067922059
aF-0.1539406624710429
aF-0.06733865969105685
aF0.07066465451629503
aF0.047523072543834616
aF-0.06525982637109566
aF-0.027917827767369986
aF-0.11781426390177785
aF0.06437432124620042
aF-0.06860688010548217
aF-0.06267594980291255
aF-0.04034900417243551
aF-0.0013705834234536904
aF0.08281365030870663
aF-0.0745650508353214
aF0.0
aF-0.04215500827718412
aF-0.04288885349124491
aF-0.0641371681295223
aF-0.04346823840968564
aF0.03300415246545689
aF0.0159600827032067
aF-0.00808256382174263
aF-0.08414056740138684
aF0.22372895650620955
aF0.07671056478208589
aF-0.06789746744546288
aF-0.19535516236128708
aF-0.07408514950991887
aF-0.0042098778699740935
aF-0.027912034801541814
aF0.0
aF0.03490831885677335
aF-0.010251279426605088
aF-0.023040009683092368
aF-0.08019154537241299
aF-0.09807694896363887
aF0.01947753787615948
aF0.06272618847256799
aF-0.04164827388937517
aF-0.03763678743033938
aF-0.033606301639018905
aF-0.03637085835243559
aF0.02695483253847817
aF0.0527715535180761
aF-0.042872176872631944
aF-0.09992424297916487
aF-0.13053741554568896
aF-0.017525291261381082
aF-0.07621799414756136
aF-0.058485106769053954
aF-0.16802110972607465
aF0.05289243718179207
aF0.220241329432168
aF0.019759879942158647
aF0.04885095922162993
aF-0.051265530716718355
aF-0.03303317167616778
aF0.0
aF-0.03576888359609366
aF-0.029992845566476762
aF-0.022173757286877906
aF0.0698908186510159
aF-0.0656775385975738
aF-0.0960861549823874
aF-0.03693346669128221
aF-0.04436861731771735
aF-0.02545129096772062
aF0.08420088871933183
aF0.02569513585792814
aF0.040896667539735414
aF0.037393879999335196
aF-0.02624039722449134
aF0.05480002706442329
aF0.09950662091596668
aF0.0
aF-0.03568237267102211
aF0.0
aF0.0
aF-0.05207749727319434
aF-0.0625022250412805
aF-0.028681816781542392
aF-0.043499809787173965
aF-0.022537686678339913
aF0.11394562584092296
aF-0.03803006937741975
aF0.0
aF-0.13126632454101414
aF-0.13534498909104156
aF-0.041050583436447866
aF0.0003066332092726137
aF-0.03790549920511465
aF0.038247884579817676
aF-0.0006888116100164429
aF-0.06382355674029483
aF-0.07166311264261578
aF-0.0986020760702828
aF0.0
aF0.05580898040154683
aF-0.09413149421146566
aF-0.0480916790782926
aF-0.010109380255526742
aF-0.1579786080227793
aF-0.0665352006484245
aF-0.04909879771367513
aF-0.04262373090312695
aF-0.1295107522773055
aF0.05160048324213912
aF0.0708011915711354
aF-0.04578590484691533
aF-0.20410572037711514
aF-0.014380826278101925
aF-0.0417993192774952
aF-0.12036436299931089
aF-0.06925957063067377
aF0.03424064170248346
aF-0.1951728591203232
aF-0.025435727810299347
aF-0.042270831337025055
aF-0.024172655214769585
aF0.06633328585268425
aF-0.03018153320449244
aF0.0
aF0.0
aF0.058896548314006196
aF-0.041050583436447866
aF-0.07587157133923533
aF0.0
aF-0.04198210009411257
aF-0.07040594520701322
aF-0.047397615897268625
aF-0.02005682062013186
aF-0.027796483077601783
aF-0.03529527007876587
aF-0.3623799786166269
aF-0.0830058211131307
aF-0.09333340370600028
aF0.0
aF-0.01110470060491575
aF-0.25199542829436666
aF-0.08095813921411107
aF-0.3397955068594328
aF0.0
aF0.0037989658404447985
aF-0.09198763334760658
aF-0.03961517386827976
aF-0.04020355512362258
aF0.0
aF-0.12064720650938107
aF-0.07763614310883542
aF-0.14633432294011273
aF0.04907329176873363
aF0.06587446893908279
aF0.003907821306255832
aF0.04412925986423688
aF-0.05024996097886128
aF-0.12882977282348831
aF0.019816768349999625
aF-0.0799162444615044
aF0.010269655862377623
aF-0.03653399119285285
aF-0.04566539262509149
aF-0.021843228211940454
aF-0.11097380736192555
aF-0.04028633938897281
aF-0.17064651311416223
aF-0.047967676279402086
aF-0.035467146995355234
aF-0.049752628297177276
aF0.08889884400031167
aF0.0
aF-0.1492974403154873
aF0.04425231587822556
aF0.0
aF-0.05259151544832624
aF-0.13097749341818946
aF0.05480002706442329
aF0.012089980049209949
aF0.09718448168871127
aF-0.15285543661501194
aF-0.03182932822875813
aF-0.050954473286525574
aF-0.12255115489086447
aF0.05237363259506
aF-0.06069851716743695
aF-0.06984364899309632
aF-0.049425451413296184
aF-0.23118614065158488
aF-0.046664207806563454
aF-0.09779610948045962
aF0.012540504775332417
aF0.0
aF-0.011434675943932415
aF-0.1221490057247088
aF-0.03191219938020749
aF-0.02465253438725764
aF-0.003105497372226239
aF0.0
aF-0.03494151288678694
aF-0.050600655900729874
aF-0.07138327561176797
aF-0.042615661505571965
aF-0.012443800433914281
aF0.047696235136882294
aF-0.014316359478538383
aF-0.03980108888900036
aF-0.023040009683092368
aF-0.13629699536332174
aF0.08202219612613577
aF0.05900089553702159
aF0.0
aF-0.08973458669251688
aF-0.2597353077040086
aF-0.188690963579305
aF-0.21040531193701575
aF-0.023843986102455125
aF-0.03557390349884692
aF0.1952841290369207
aF-0.06750618875046215
aF-0.05176361905430178
aF-0.0988218083324298
aF-0.09175972523276635
aF-0.06612498164176173
aF0.011313904123888538
aF-0.09290934738876797
aF-0.03708990385739889
aF-0.022173757286877906
aF-0.0110245133898406
aF0.08420088871933183
aF-0.050600655900729874
aF-0.03921991792452652
aF-0.0357850718183714
aF-0.04606480000975081
aF0.061198525711095124
aF-0.07420104204302727
aF-0.04620084612199457
aF-0.007250494762163234
aF0.09570508200166863
aF-0.11999152326008936
aF0.05575036052189043
aF0.0698775657187688
aF-0.03672920540277368
aF-0.11035452849227205
aF-0.04791660028421191
aF-0.08881676392369275
aF-0.02920709881737739
aF0.0413547029946566
aF0.0
aF-0.04911470947734009
aF0.05646993861320118
aF-0.11196253046423775
aF-0.008267200007139892
aF-0.02357806268024594
aF-0.1260117798529286
aF-0.02021082529950666
aF-0.01824847432644206
aF0.0
aF0.012037376486635325
aF0.05014662001549347
aF-0.06477043766203486
aF-0.034343708249062965
aF0.0016156518479243515
aF-0.03657923868160489
aF-0.03549644047983453
aF-0.03864296677768589
aF-0.04506421148831643
aF0.0
aF-0.0631886345061406
aF0.02358073594651932
aF0.037027828240849006
aF0.06032342153347308
aF-0.030254989334263613
aF-0.02233438076231978
aF-0.04509906585819167
aF-0.02133948206229207
aF0.05977056039477553
aF-0.2198338151006652
aF0.0
aF-0.042844085087818035
aF-0.0455072697374396
aF-0.07292522310521588
aF-0.013700502159392067
aF0.018908667874747105
aF0.02230635755521254
aF-0.03934814168964291
aF0.06270020877569939
aF0.05850713303253699
aF-0.12616537718072024
aF-0.021026623013671173
aF0.036503709658737074
aF0.0
aF0.015524225844051866
aF-0.05064692416523821
aF-0.08405313671073515
aF-0.024716527787173256
aF0.0
aF-0.035270885796638625
aF0.08109615782423411
aF0.14087153693904603
aF0.0
aF-0.07453562907261413
aF0.0
aF0.0
aF0.05289243718179207
aF0.06267395253823455
aF-0.0069157996177987915
aF-0.043396623028854636
aF-0.05023975337083378
aF0.03129281572507851
aF0.07789290751848246
aF0.10975195304118704
aF-0.07100063044723771
aF0.01972075454487561
aF-0.022173757286877906
aF0.03497562699473716
aF-0.12549228266941928
aF-0.00486361612799785
aF-0.03531479417072604
aF-0.31326409781896963
aF-0.08128125429236252
aF-0.1127555412689272
aF-0.07724070035354795
aF0.0
aF-0.14004177374835675
aF-0.027917827767369986
aF0.027707234731596246
aF-0.04785374682702133
aF-0.03852916152477267
aF-0.014804094664482823
aF-0.2544540496434521
aF-0.10927180600303596
aF-0.08861104013929735
aF-0.025825390603939825
aF-0.03398341299653122
aF-0.07642729081826319
aF0.019926495395689123
aF-0.04655995691888593
aF0.055091098920886955
aF0.03471471706616164
aF-0.03881215387964419
aF-0.01533087908470164
aF0.11517814407667848
aF-0.1711657594651239
aF-0.00467051525821113
aF-0.2526468125740333
aF-0.01721163896735453
aF-0.02646242621299797
aF0.0
aF-0.061684176162936345
aF-0.035375552022289286
aF-0.19387181611338294
aF-0.1054053529819564
aF-0.04842148506080268
aF-0.03921991792452652
aF-0.08903360018342885
aF0.10907200850596899
aF0.01504134432817944
aF-0.03060253960974653
aF-0.03494151288678694
aF-0.049517735940103905
aF-0.02563299441152019
aF-0.15290056427854068
aF0.0
aF0.050269747835241387
aF-0.05292745600104149
aF0.22463935342479285
aF-0.06224161070974161
aF-0.06630460355148254
aF-0.03178308595104539
aF-0.11333723319254518
aF-0.01211031229869308
aF-0.06315712523515302
aF-0.03772026151344931
aF-0.030161509404804186
aF-0.041589839631713095
aF-0.07526467365773927
aF0.07973426452904896
aF-0.13898232114254763
aF-0.08126517868088781
aF0.05718223277959179
aF-0.08957861512881989
aF-0.17851168006610565
aF-0.028366914573044074
aF-0.09528058742136922
aF-0.03005089117560605
aF-0.03696452276482504
aF0.0
aF-0.07827184322912867
aF-0.1146893230530167
aF-0.007671525021756936
aF0.01585645594279795
aF-0.06257058679783309
aF0.03347251232052688
aF-0.15126164078469048
aF-0.03852916152477267
aF-0.10553090216543588
aF-0.04785374682702133
aF0.07236913617316294
aF-0.10008730895775414
aF0.1181078890692483
aF-0.04080567218386166
aF0.08148261405227708
aF-0.03946756443091358
aF-0.050954473286525574
aF0.0
aF-0.14725421998734997
aF-0.007520562154009188
aF-0.07709393971069095
aF0.04771997132807779
aF0.1127247712217771
aF-0.14067109968281602
aF0.049575839383864284
aF0.06905011402624808
aF-0.034307640233118664
aF-0.07382471732509152
aF-0.06892351239806113
aF-0.03494151288678694
aF0.12508353345885914
aF0.06858883087022763
aF-0.027746356925180717
aF0.0
aF-0.08551884156275892
aF-0.03888136777228762
aF-0.13676418609649127
aF-0.07451465097987936
aF-0.02592323102399871
aF-0.0455072697374396
aF-0.0844184124514733
aF0.0
aF0.012591738103956758
aF-0.04539487040090475
aF-0.018930543984427728
aF-0.11661069500048217
aF-0.05275508579553973
aF-0.10499767108588229
aF-0.027671716255793122
aF-0.03628420014481503
aF-0.011029366136917115
aF-0.17964717179706874
aF-0.08474840188911655
aF-0.04003400787279053
aF0.05452513288139056
aF0.0
aF-0.09814171912250677
aF0.006614741314245894
aF-0.016484029487298622
aF-0.07428010577374118
aF0.13800672982166065
aF-0.00856791925699769
aF-0.015182930267125687
aF-0.031767412270567945
aF-0.13043623602870266
aF0.0
aF0.0649556975880962
aF0.04974348795232316
aF0.014609478435006602
aF0.06808397969661749
aF0.02426236385309896
aF-0.024203700556539212
aF-0.06298437164063982
aF-0.07101717739483959
aF-0.014630162759671028
aF-0.04044594835366436
aF-0.03934814168964291
aF-0.11335170062179065
aF-0.027165983310957598
aF-0.06861699975551253
aF-0.05039131765012608
aF-0.04542826582428011
aF-0.10365301575431679
aF-0.007686314011118179
aF-0.04397867594139716
aF-0.02001386261337191
aF-0.04086076912696461
aF-0.03934814168964291
aF-0.033050357755194104
aF0.06729467009599431
aF-0.1252896145642627
aF0.019330540148964463
aF0.03723305869625874
aF-0.15006551751339087
aF-0.001025025025115922
aF-0.09428005043672884
aF0.039519072741236304
aF-0.009482287731477433
aF-0.07563694865314574
aF0.05977056039477553
aF-0.09098513708073291
aF0.0
aF-0.04346853092842479
aF0.04633820215733532
aF0.0
aF-0.07091851212486289
aF-0.02645096579155598
aF-0.12023009608621027
aF-0.009109500659434767
aF0.0673112226474773
aF-0.15668640956593283
aF-0.033394192126097996
aF0.1920504354876092
aF-0.02756751797384005
aF0.07991148093609649
aF-0.02204143956631826
aF-0.028128847264024856
aF0.0767181340750044
aF-0.07586164996263461
aF-0.03972150857595874
aF-0.08027270255787705
aF-0.016160422677755134
aF-0.07911717819644831
aF-0.03494151288678694
aF-0.031767412270567945
aF-0.02021082529950666
aF-0.030294819282128987
aF-0.01799505303146363
aF-0.11830672043160385
aF-0.0943536706754792
aF-0.14684387410310948
aF-0.14669126897390164
aF-0.1333534037096169
aF-0.1840853594977756
aF0.0
aF-0.03161890631101234
aF-0.089391081682439
aF-0.08346889410808878
aF-0.04617779262911582
aF-0.03531363057560453
aF-0.02926644979719581
aF0.05973629583757942
aF0.0014728807944998853
aF-0.07118856771475338
aF0.016822223421196457
aF0.03580074582995262
aF-0.05431111328063119
aF-0.001451841046436704
aF-0.1446718741164836
aF-0.04301146538657074
aF-0.050954473286525574
aF-0.053939579256081324
aF0.0
aF-0.0880731714133286
aF-0.009938545380448117
aF-0.08711187907317944
aF-0.0357850718183714
aF0.024495082134753716
aF0.06671281783639747
aF0.09950662091596668
aF-0.015278970912315068
aF0.12720315032283486
aF-0.1440051758535005
aF-0.15380774309999853
aF-0.01769144867713529
aF0.015930375507128162
aF-0.14619199988731538
aF0.0
aF0.0
aF0.03350844244577126
aF-0.10161101443612751
aF-0.055893761734678304
aF-0.26465153388016543
aF0.01899004414631616
aF-0.03694438134780881
aF-0.14530749285229225
aF-0.06625717340036466
aF-0.016828857083877085
aF-0.08214624365451548
aF-0.18183947071483747
aF-0.03494151288678694
aF-0.031767412270567945
aF0.03940145486628583
aF-0.07030349486160126
aF-0.023305562788420053
aF-0.1044066619443644
aF-0.29913332206641624
aF-0.0942146318362782
aF0.0
aF-0.16966586915214166
aF-0.05081533839679634
aF0.06222907917225347
aF-0.12289779559953355
aF-0.037532274747033564
aF-0.13991310094738857
aF-0.03919888297511242
aF-0.07840790711828267
aF0.05162935040616858
aF0.0
aF-0.04680342335882622
aF-0.018448245471696167
aF0.06517534491317425
aF-0.04683155870592379
aF-0.09211172654364168
aF-0.10991661489312139
aF-0.028353416759827273
aF-0.0766725072302622
aF0.0
aF-0.13773206029686935
aF-0.008285510253551375
aF0.02467751448119359
aF-0.05406111923307663
aF-0.10069829679831156
aF-0.2169348440751131
aF-0.0905103075519389
aF0.0
aF0.0004672552950214029
aF-0.13464755799701944
aF-0.03568745202879007
aF-0.30056927488690893
aF0.018378600946400536
aF-0.18703172587771255
aF-0.048177994475911375
aF-0.07301103207728453
aF-0.05772815289892608
aF-0.05580553787710664
aF-0.0468738446623675
aF-0.028085274603838063
aF0.003726393713735926
aF-0.015211429136385275
aF0.05896315810391098
aF-0.05526304693200589
aF0.0
aF-0.039836017248402515
aF-0.029005525875248607
aF-0.04887347605293349
aF-0.0367298991924187
aF-0.031673429868696416
aF-0.02443469789844263
aF0.021598447495445258
aF-0.08169627335125099
aF-0.05445771362948704
aF-0.028281413327984825
aF0.0
aF0.0948693655601922
aF0.07877769751167213
aF0.027162342456671186
aF-0.00932075536569013
aF0.0617883567685694
aF-0.010066663787825475
aF-0.024931334885236692
aF-0.016612163547128724
aF-0.03782046344758615
aF-0.0346200775385733
aF0.05999061495968498
aF-0.29304371272036595
aF-0.003711365674048721
aF-0.11940731018684951
aF-0.022904943205801928
aF-0.027821751567742144
aF-0.12524653077669892
aF-0.021215928164160937
aF-0.027538340694796395
aF-0.014986223379839054
aF-0.11897308445363414
aF0.0
aF0.03401797501023454
aF-0.15422583676897436
aF-0.1950137713660596
aF0.09336613516000619
aF0.0
aF-0.08214186144225977
aF-0.015244189191645325
aF-0.13390694110251744
aF0.008217962178770754
aF-0.16373785682763492
aF-0.41790382871728504
aF0.0
aF0.05962473005893945
aF0.0
aF-0.018775244497388256
aF-0.17101725562051548
aF0.19051115656670864
aF-0.051735169943231615
aF-0.1757087463993432
aF0.0
aF0.28135355087170427
aF-0.049517735940103905
aF0.059546872386730135
aF-0.10708118357019206
aF0.0790824976063143
aF-0.03383131291761942
aF0.0
aF-0.11876373033967969
aF-0.19634371814467172
aF-0.2095358053373836
aF-0.10914576195372856
aF-0.02788818380146222
aF-0.05024619644822286
aF0.10033350048280092
aF0.024369123581692416
aF-0.008993941835083199
aF-0.09181402424621986
aF-0.08914148323544419
aF-0.021928175855230627
aF0.11523304445325763
aF-0.1177605186299013
aF0.0
aF-0.039638270487944466
aF0.051542216398039714
aF0.0
aF0.05363840686665701
aF-0.03060253960974653
aF-0.008502727305693632
aF-0.04897766991542987
aF-0.17807357966084464
aF0.07484678751023854
aF-0.14492239254676467
aF-0.06701880545791596
aF0.042371971837815055
aF0.03314173531545557
aF-0.0554841232815954
aF-0.07042178586336308
aF-0.04809184795787757
aF-0.06825621326879483
aF-0.008267200007139892
aF0.09261487170433988
aF-0.016245962814014935
aF-0.04647807528154857
aF-0.021584287766760912
aF-0.011218089945608287
aF-0.1261999590616219
aF0.08344249043774787
aF0.18147408540627033
aF0.07063982945792156
aF0.13127262031673723
aF0.011650774566048676
aF-0.05122060464306927
aF0.0131931136558939
aF-0.04374180814914927
aF-0.06429989372039469
aF-0.08599696011009936
aF-0.0392741735146747
aF-0.03327603710795831
aF-0.05022848018607472
aF0.061744080239342636
aF-0.025351505059961484
aF-0.008741701602887713
aF0.07387449271900579
aF-0.06679294940782267
aF-0.051593661066854646
aF0.030223775265736826
aF-0.10024578481706756
aF-0.09613610363197808
aF0.0
aF0.04902753881668541
aF-0.08644111898450962
aF-0.08989046906353544
aF-0.04557305036973483
aF-0.0936967881892089
aF-0.4004592477422728
aF-0.1256560598978808
aF-0.04816198876628904
aF0.0
aF-0.014316359478538383
aF-0.11829820006250918
aF0.06398396554792612
aF-0.04783643137436522
aF0.06969997463630712
aF0.0698908186510159
aF-0.07335445399152103
aF-0.09716501639113767
aF-0.10838307174710651
aF-0.01585984716504251
aF0.0554604359537785
aF-0.12642191717374124
aF0.13638197402608843
aF0.0530874213203162
aF-0.05045614283480132
aF-0.3796979315296009
aF0.1633423617145992
aF-0.08505660318074759
aF-0.025621818313817803
aF-0.1935468605030629
aF-0.23611326528870805
aF0.05888601332365216
aF-0.040281181794197644
aF-0.07469766902761774
aF0.10484468539344115
aF0.07764603817320545
aF-0.0664886997942869
aF-0.13013845130575505
aF0.09950662091596668
aF0.07295140068022116
aF-0.1346560085391956
aF-0.03401609366082215
aF-0.1410054762961616
aF-0.4313832342717398
aF-0.04149182874641544
aF-0.0791089898497809
aF-0.35448009666675
aF-0.049307696030251334
aF-0.05864954266114438
aF-0.27158884956703566
aF0.06508936012873386
aF0.0
aF0.0328479202612057
aF-0.11615766859432329
aF0.0
aF0.0555030317178232
aF0.04806120395856804
aF-0.017268857033332388
aF0.12336587206886257
aF-0.046084234811320596
aF-0.04708604345802603
aF-0.10152481601283087
aF0.05261280381519001
aF-0.02479079072879092
aF-0.2634752142820707
aF-0.04785374682702133
aF-0.21689325564200107
aF-0.07868996944397322
aF-0.1538871843111444
aF-0.0752154441501045
aF-0.10580444052211675
aF-0.2210692849165377
aF-0.022507042270323168
aF0.022556310969269133
aF-0.06328127354126023
aF-0.0659089133409845
aF0.06799562356794171
aF0.013234318902308915
aF-0.03488332866565385
aF-0.04709952421738947
aF0.023826658916156887
aF-0.017629784298794655
aF-0.024733939778148847
aF-0.05322956013460838
aF0.004525902529039408
aF-0.035811642988366116
aF-0.08581275040931113
aF-0.1189058654707622
aF0.05325251105723752
aF-0.28190724604442363
aF-0.03060253960974653
aF-0.024417395860942454
aF-0.04013814235661351
aF-0.03382821959553288
aF-0.03625828070706298
aF-0.09125122462984822
aF0.018155180627399008
aF0.0062593133238238174
aF-0.03492577784701633
aF-0.05169505624429472
aF-0.1503805632631797
aF-0.04238857292252757
aF-0.1430338352246645
aF0.12193760392428712
aF-0.10464291700438542
aF-0.1693768919003369
aF0.02086843422636967
aF0.023213819289646456
aF-0.08423533217292234
aF-0.13319979567851192
aF-0.0734347989157641
aF-0.05045757327120107
aF-0.022845601362844102
aF-0.1370833474033074
aF-0.07763196558469669
aF-0.2850073220353431
aF0.015242194123266634
aF-0.039225728262147236
aF-0.12278350636125017
aF-0.13273731014510284
aF-0.069911517729871
aF0.0
aF0.062310528876008034
aF0.14497765524627776
aF0.1848620007736237
aF-0.03437493210019132
aF-0.10949351461444191
aF-0.09061742027799252
aF0.051543866465758106
aF0.039469231099255
aF0.0
aF0.056354205151800126
aF-0.03625828070706298
aF-0.2067757144306139
aF-0.11688321813028679
aF0.0
aF-0.10025752352915944
aF0.0
aF0.06343998088428747
aF-0.24777553538774358
aF-0.004162064063001743
aF0.00436489083997145
aF-0.05648456287938375
aF0.07245836817687393
aF-0.28763810539081586
aF-0.3411083889657986
aF-0.06370027669012547
aF-0.02668373152839212
aF-0.2095558712022273
aF-0.2148316138365574
aF-0.18218569955438574
aF-0.04143654838079351
aF0.06550390845067497
aF-0.5163844413638223
aF0.0
aF-0.026548802599622584
aF-0.025825390603939825
aF0.0
aF-0.1523151093250606
aF-0.020621985785115052
aF-0.1484444906986369
aF-0.04678878707630959
aF0.12094618937780555
aF-0.1429177005756489
aF-0.02359445217942941
aF-0.07284498223296337
aF-0.03214106507709158
aF-0.049973898493725404
aF0.008271657980572035
aF-0.03013077506537905
aF-0.03464614606529678
aF-0.01966822629048662
aF-0.0630940322136273
aF-0.0013104735461965042
aF-0.14304657228789852
aF-0.02753149070625188
aF-0.07597498190049683
aF-0.04784117556439374
aF-0.012328796719689297
aF-0.24515395886814512
aF0.026681781525157655
aF0.0
aF0.0
aF0.013108524173095513
aF0.04131467289940538
aF0.05374707837982682
aF-0.05639458411644478
aF-0.04057334673424179
aF-0.04488399433504589
aF0.028687227688129757
aF-0.03383131291761942
aF0.06064948994097172
aF0.0
aF0.25321600790739224
aF-0.11169651007139243
aF-0.0463454885622856
aF0.010362826759164875
aF0.20030480400006057
aF-0.028225090912249097
aF-0.05041266037259193
aF-0.07941042556229708
aF0.0015575095724887278
aF0.0659882893099005
aF0.038614311682657915
aF0.0006962493424827187
aF0.06848055698374836
aF-0.027890564688581834
aF0.0698166377135467
aF-0.029187108929305056
aF-0.024513415952987325
aF-0.025031750840411968
aF0.019987497769484587
aF-0.0217076979359445
aF0.0
aF0.041577409310971813
aF0.06437432124620042
aF-0.0484449142779873
aF0.0
aF-0.05639458411644478
aF-0.04693851745165001
aF-0.03464614606529678
aF-0.08364924428184842
aF-0.1413573188408364
aF-0.012975449665283573
aF-0.24699527964808116
aF-0.06557903650044389
aF-0.1788000332574478
aF-0.03247845194821122
aF-0.08367683545730037
aF-0.05215121780799579
aF0.1280333514594046
aF-0.045202864918003946
aF-0.056208817845557105
aF-0.07760730465553227
aF-0.04061477175851916
aF0.0
aF-0.27586642456877875
aF-0.024130213386261673
aF-0.14046482501300286
aF-0.14048398779391014
aF-0.049223348471491256
aF-0.037936726047034734
aF-0.07249436748971747
aF-0.02833225842543502
aF-0.09028030155194013
aF0.03637963072538102
aF0.034439843754319986
aF0.13928442669262517
aF-0.030138671258881686
aF-0.05736635307174058
aF0.050030487686464654
aF0.06297335511888516
aF-0.03995923116502195
aF-0.026620024841355863
aF-0.04854381469284916
aF0.05214142286521768
aF-0.008969752566272029
aF-0.11550106252848857
aF-0.048386016413094805
aF0.05962473005893945
aF0.040098348199118165
aF-0.018313210353223027
aF-0.16951569895503094
aF0.0
aF-0.6234020249184551
aF-0.008032582040971598
aF0.003183717363790209
aF-0.1254922493538955
aF-0.04824825548974443
aF-0.043804507384399165
aF-0.13112549917954955
aF-0.06065679978142475
aF-0.003950913894240923
aF-0.03524303301567993
aF-0.04803973620028446
aF0.009232161652993294
aF-0.042872176872631944
aF0.05121711888829553
aF-0.17957085052792554
aF0.0958172028577661
aF0.061144847454157186
aF-0.26039355778358425
aF-0.028461620730658083
aF-0.0011180688473723804
aF0.06372950640451074
aF0.028506059701124978
aF-0.03792467215940623
aF-0.04899525962829167
aF0.13605391414519397
aF0.0
aF-0.03468067159062477
aF-0.021082380622351266
aF-0.029992845566476762
aF0.07973426452904896
aF0.0
aF-0.04351496823472638
aF0.0
aF-0.13009755178239768
aF0.0
aF-0.16000892663276714
aF-0.06253040370147932
aF-0.04016410525291701
aF-0.09089063756993015
aF-0.12757651190913732
aF-0.1688019906675243
aF-0.04826434668329457
aF-0.03118922494963009
aF-0.04154299215508832
aF-0.028602362078611845
aF0.07834425606818898
aF-0.08653673835945497
aF0.0
aF-0.23800264928935194
aF-0.04204465211252856
aF-0.030559606650573126
aF-0.10544341830800583
aF0.04795400168506676
aF-0.023640254795405085
aF0.0
aF-0.05472518700977334
aF-0.008324656158225426
aF-0.015706118681696885
aF-0.019882807497971243
aF-0.04039691767856336
aF-0.03446369545806249
aF-0.03693509336795046
aF0.0
aF-0.05477593128076781
aF0.06962197930139478
aF-0.07707394123365235
aF-0.09250234715777907
aF-0.09312073328087286
aF-0.04985320487548614
aF0.0
aF-0.1142826491378815
aF7.769560906401712e-05
aF0.03612099171364391
aF-0.030254989334263613
aF0.03877346749681153
aF0.04495905855724913
aF-0.030161509404804186
aF-0.18611333322062648
aF-0.1054053529819564
aF-0.05987503941110653
aF-0.020973109820933415
aF-0.08888926216408595
aF-0.00486361612799785
aF-0.0455072697374396
aF-0.07911717819644831
aF-0.061465498895313775
aF-0.8802693046817308
aF-0.6664447755979929
aF-0.04175726299748639
aF-0.16915431546399629
aF-0.022173757286877906
aF-0.03524303301567993
aF0.06470854835061733
aF0.037393879999335196
aF0.02230635755521254
aF0.0
aF-0.26039355778358425
aF-0.10544341830800583
aF0.0007797362698439628
aF0.018929969354712715
aF-0.007119420492726948
aF-0.056932770120075145
aF0.002286564554904936
aF-0.017847747373036002
aF0.0
aF-0.008128218551876197
aF-0.040010868032373095
aF-0.20246775481649498
aF-0.22437945415329397
aF-0.057343559433625436
aF0.006291288851767742
aF-0.014910789826039241
aF-0.017009561899745434
aF-0.0335495682641606
aF-0.04682924169715741
aF0.0
aF-0.035403053418771646
aF-0.08824579734508692
aF-0.01816908518431787
aF-0.03694353110841318
aF-0.14288409282454556
aF0.06962197930139478
aF0.03929317067922059
aF-0.17021454872321767
aF0.17846029683836145
aF0.031023875764876245
aF0.0
aF0.026583451880057923
aF-0.020901951335569942
aF-0.25571217426938214
aF-0.028602362078611845
aF-0.01769144867713529
aF0.0
aF-0.013044329541995688
aF-0.0311143521628106
aF0.0
aF0.0
aF0.0897783585606555
aF-0.01984320290523486
aF-0.020915057532131916
aF-0.004967317120239945
aF-0.18148650800876392
aF-0.10592484554250957
aF0.0
aF-0.14370106392581233
aF-0.06382355674029483
aF-0.05461682693704749
aF-0.018448245471696167
aF-0.03315609017510642
aF-0.03382821959553288
aF0.0
aF0.06829998825671862
aF-0.0960861549823874
aF-0.07642729081826319
aF0.03424064170248346
aF-0.0480916790782926
aF-0.1951728591203232
aF-0.058485106769053954
aF-0.07420104204302727
aF-0.09413149421146566
aF-0.024531219136201567
aF-0.23558909132485822
aF-0.07040594520701322
aF-0.02474786779189799
aF0.0
aF-0.03921991792452652
aF0.014609478435006602
aF0.0
aF-0.03574825881732064
aF-0.04785374682702133
aF-0.08027270255787705
aF-0.047469105672897666
aF0.0
aF-0.30161591563560164
aF-0.04785374682702133
aF-0.028681816781542392
aF-0.06625717340036466
aF-0.03018153320449244
aF0.017608143698013036
aF-0.02897473248646583
aF-0.0986020760702828
aF-0.04378813535544731
aF-0.039000918211893
aF-0.10507036472632027
aF-0.018930543984427728
aF-0.015267900704375073
aF-0.04751719968390714
aF-0.0456310928144789
aF0.07483893023254291
aF0.0
aF0.06858883087022763
aF0.027162342456671186
aF-0.30161591563560164
aF0.0641880840655553
aF-0.005847753547851009
aF-0.1370202490581222
aF-0.06487167375961157
aF-0.07420104204302727
aF0.0064517090336384045
aF-0.03763678743033938
aF-0.0455072697374396
aF-0.20169332375578633
aF-0.07622486190902976
aF-0.09304510379840297
aF-0.013947626291468812
aF-0.03060253960974653
aF0.053558170253240216
aF0.0
aF-0.0006400936363262374
aF-0.018583345456966896
aF0.006633846757296773
aF-0.041459469585082745
aF0.03365253721986683
aF-0.03972257800333474
aF0.07286353291764729
aF-0.04161414815121153
aF-0.06854377297607268
aF-0.12676669185567038
aF-0.35448009666675
aF-0.14148821713233023
aF0.019692234479743817
aF-0.04836956022991737
aF-0.07840790711828267
aF-0.07482262114972235
aF0.0
aF0.0
aF-0.15770411608424484
aF-0.01585984716504251
aF0.029429934028694565
aF-0.08249881095388852
aF-0.04348533155889084
aF-0.02645096579155598
aF-0.05087944593972223
aF-0.053174648749326245
aF0.007509014912493013
aF-0.024052509763783175
aF-0.04751406732750961
aF-0.04882156991370546
aF-0.06020884425187904
aF-0.14076861878343383
aF-0.07899775188476772
aF0.0
aF0.05691472969749866
aF0.0
aF-0.09015808454403604
aF0.0
aF-0.032358290903415236
aF-0.02666333630320904
aF-0.04709952421738947
aF-0.05732615508795878
aF0.0
aF-0.034307640233118664
aF-0.047737850682540474
aF-0.050790712389181945
aF-0.11876373033967969
aF-0.01817429466666473
aF0.09950662091596668
aF-0.12524653077669892
aF-0.0558883878789722
aF-0.15662421856184292
aF-0.05270306266138137
aF-0.15662421856184292
aF-0.15303183330857506
aF0.05364700929046354
aF0.07905988196967646
aF-0.03398341299653122
aF-0.043499809787173965
aF-0.04422008703872095
aF-0.05215121780799579
aF-0.0337232094843107
aF0.04051626390531424
aF-0.03696452276482504
aF-0.01431333383844019
aF0.006633846757296773
aF0.05014662001549347
aF0.0
aF-0.1538871843111444
aF-0.08936317634384303
aF-0.004649816830867997
aF0.002286564554904936
aF0.0
aF-0.04911470947734009
aF0.07877769751167213
aF0.0
aF-0.02989439268026049
aF-0.004152990138156807
aF-0.1988509185861669
aF0.030935029433021295
aF-0.069911517729871
aF-0.017303067931325782
aF0.07973426452904896
aF0.01636029362753981
aF0.17011789966331026
aF0.014920758604727136
aF0.0018927563235690264
aF0.08360639082599966
aF-0.03646894179112846
aF-0.04363478099475063
aF-0.051265530716718355
aF-0.03544607024873925
aF-0.026746694711776133
aF-0.00948648293878527
aF-0.037232586236392806
aF-0.033267596391184893
aF0.04771997132807779
aF-0.054031330010234906
aF-0.02624039722449134
aF-0.08625536453171365
aF-0.017388333071984667
aF0.04526982172238367
aF-0.031673429868696416
aF-0.05039131765012608
aF-0.038942768488903545
aF-0.04751719968390714
aF0.0
aF-0.011337325073310946
aF0.062068736553300335
aF0.0
aF-0.04484774095616305
aF-0.07469766902761774
aF-0.09714259276963698
aF-0.054567011221521355
aF-0.0035313227171208383
aF-0.04215500827718412
aF-0.04809184795787757
aF0.0232676098294368
aF0.0
aF0.06905011402624808
aF0.06222907917225347
aF-0.0793363763994376
aF0.14409029165851206
aF0.05214142286521768
aF0.04131467289940538
aF-0.041589839631713095
aF-0.01608373912545459
aF-0.05781861309400366
aF-0.02920709881737739
aF-0.020312930963870476
aF0.05364700929046354
aF-0.11496763266029816
aF0.09972077287742492
aF-0.04238857292252757
aF-0.0554841232815954
aF0.0005947366492821751
aF-0.09463679179924814
aF-0.15358476108856853
aF-0.09714259276963698
aF0.0700408423607666
aF0.05564946571472184
aF-0.10049050524919181
aF0.01928678812593674
aF-0.017021520020841518
aF-0.09318553780179659
aF0.0
aF0.0035160783585895874
aF-0.036402318148311893
aF-0.12626052779155178
aF0.1640090539234934
aF-0.13013845130575505
aF-0.07539568700612728
aF0.007562230795719379
aF-0.06707758579794605
aF-0.20285748552241895
aF-0.051780525501985246
aF-0.01207737475010977
aF-0.3828346185336155
aF0.06673376790088897
aF-0.014078073469961842
aF-0.025910930405029876
aF0.0
aF-0.11152693829823171
aF-0.0980348816170327
aF-0.13180205439720327
aF0.07663885889799625
aF-0.03166229923668006
aF-0.14956013746916136
aF-0.017943189458942542
aF-0.08770288154426456
aF-0.04039691767856336
aF-0.06598331286585532
aF-0.08771168784054287
aF-0.07545980223003335
aF-0.04609972551909748
aF-0.07508413108334624
aF-0.03326968986110681
aF-0.10142812699632245
aF0.08315460923529794
aF0.09950662091596668
aF0.05402119638303826
aF-0.0416771003353644
aF-0.1272870345204222
aF-0.2193367017660393
aF-0.06869302254061893
aF0.06547013743718091
aF-0.035780405785403244
aF0.048304313918192204
aF-0.05362551002021561
aF0.05332830910148412
aF0.04723399605136998
aF0.0
aF0.03497562699473716
aF0.023693514957942155
aF0.0
aF-0.011320396290120154
aF-0.03335619815739614
aF-0.030254989334263613
aF0.07007010028280662
aF-0.01637505137228052
aF-0.16124568221769464
aF-0.1257384715858393
aF-0.027890564688581834
aF-0.03763678743033938
aF0.003907821306255832
aF-0.04466080011015195
aF-0.019666934787864784
aF-0.12626052779155178
aF-0.04645921123485875
aF0.13279774292176103
aF0.05301870788742036
aF-0.21817532708014872
aF-0.10550114846117639
aF-0.05039156171475073
aF-0.13507017981182354
aF-0.0661749902856379
aF-0.1200817378949954
aF-0.040374254695839544
aF-0.0649817930718566
aF-0.03492335972570605
aF-0.04989549778476682
aF0.09950662091596668
aF-0.2690736647187106
aF-0.22627809892206194
aF-0.03819004590878178
aF-0.02717203561390761
aF-0.03742357086503966
aF-0.09436577756337856
aF-0.026733137017909615
aF-0.04757154891156569
aF-0.09051409908032712
aF-0.01637505137228052
aF-0.035716417396685816
aF-0.08456344639504963
aF-0.25571217426938214
aF-0.03757859531422275
aF-0.035615502910578085
aF0.020015136591279552
aF-0.0657775389474164
aF0.0844854822916838
aF-0.0335495682641606
aF-0.043168575533521825
aF-0.035914884423529546
aF-0.04827875088484823
aF-0.026694642381567702
aF0.0
aF-0.012545579887217008
aF-0.35701971394248705
aF0.05499902090752389
aF-0.024052509763783175
aF-0.13228907606685986
aF-0.05680943383580652
aF-0.022273637896517817
aF0.3342448964613326
aF0.0
aF-0.039945075620666806
aF0.0766041225724142
aF-0.03640964217362441
aF-0.10958885529067271
aF0.0700408423607666
aF0.05308648762844341
aF-0.011941237634292673
aF0.0
aF-0.044987523247617976
aF-0.12694102373938826
aF-0.04079742324112901
aF-0.0455072697374396
aF-0.051957239386351675
aF-0.024130213386261673
aF-0.004283578094532842
aF-0.038242123737677214
aF-0.05023975337083378
aF-0.22840638538517175
aF0.036191237884228074
aF0.12332802791661891
aF0.05627865421763106
aF-0.01848064995762254
aF-0.09219087331440985
aF-0.19062759911577576
aF-0.5239315595624304
aF0.0
aF0.0
aF0.0
aF-0.08678803769590601
aF0.05908968572047688
aF-0.03742357086503966
aF-0.02624039722449134
aF-0.18392324704995444
aF-0.01769144867713529
aF-0.007119420492726948
aF-0.036208400338452934
aF-0.04204465211252856
aF-0.03231604702396065
aF0.0
aF-0.17099035904696902
aF0.0
aF-0.06219383952951536
aF-0.01675962316482267
aF-0.07702302331198754
aF0.02378952286258071
aF0.0064517090336384045
aF-0.04012057690011194
aF0.028174387208468828
aF0.11834904784850098
aF-0.22677893386039535
aF-0.1279195013305104
aF0.0
aF-0.025273684097316895
aF0.0933747289853567
aF-0.0006743199234619784
aF-0.049965375642372564
aF-0.043168575533521825
aF0.06032342153347308
aF-0.03128871822955939
aF0.0
aF-0.05838084835327923
aF-0.007119420492726948
aF-0.07370042888233014
aF0.05973969083754536
aF0.002286564554904936
aF-0.06271479052468378
aF0.08701696470343061
aF-0.17225304156486532
aF-0.060556953318565664
aF-0.07512521014842866
aF-0.04254941518132094
aF-0.022062593575485002
aF0.05962181375741946
aF0.0165204714460271
aF-0.06302118432958477
aF0.059158878206851784
aF0.0
aF-0.03846867576340488
aF-0.06100280515647388
aF-0.0427917154388764
aF-0.027618616630680527
aF-0.14848944248536586
aF-0.05463513147539319
aF-0.015250293729181505
aF-0.12996155218383637
aF-0.1972139983106046
aF-0.03516679742076739
aF-0.25998317102247126
aF-0.04377458374434012
aF-0.11322206362111509
aF-0.02233438076231978
aF0.14537639357001197
aF0.0
aF0.0
aF-0.0945597061334827
aF-0.10185774309326634
aF0.01892348938503639
aF0.023600347885474375
aF-0.0549766531894509
aF-0.060559558428492005
aF-0.07034568609111869
aF-0.11030097123453081
aF-0.007002503488841146
aF0.009777027645493739
aF0.017608143698013036
aF-0.015250293729181505
aF-0.026694642381567702
aF-0.029864690656786694
aF-0.005993601011672586
aF-0.07025166149387062
aF-0.06400167741928567
aF-0.040602718717707056
aF-0.014390477413241114
aF0.027135542931464578
aF0.0
aF-0.07688614917581936
aF-0.16915431546399629
aF-0.01207737475010977
aF-0.20959938458720856
aF-0.18287335706430213
aF-0.03646894179112846
aF0.05797861100674051
aF-0.027917827767369986
aF-0.07766362528918233
aF0.0
aF-0.05173631663769508
aF-0.007119420492726948
aF-0.045958886803305884
aF-0.09628643045560352
aF0.0
aF0.0
aF-0.08336940854383014
aF-0.2352186643813267
aF-0.07532036206688411
aF-0.07479624710200036
aF0.058163729856973184
aF0.0
aF-0.03792467215940623
aF0.0
aF-0.2658818332803336
aF-0.024172655214769585
aF0.015152819515833138
aF-0.16635151694562733
aF-0.03646894179112846
aF-0.037232586236392806
aF-0.03742357086503966
aF-0.14956013746916136
aF0.05627865421763106
aF-0.03574809505578854
aF-0.05984556197558842
aF-0.020312930963870476
aF-0.12688191125736087
aF-0.040740515544651315
aF-0.043650640364013255
aF0.07973426452904896
aF0.04242388448710368
aF-0.04055016932177529
aF-0.07622486190902976
aF-0.040740515544651315
aF-0.050677506930952215
aF-0.06311281781977746
aF-0.24936421712147716
aF0.10142889935040134
aF-0.018870687470505847
aF-0.15866161386000138
aF-0.03000977836747687
aF-0.1783233919194382
aF-0.01207737475010977
aF0.03316865908427076
aF-0.08156785704210096
aF-0.03763678743033938
aF-0.041523365710035565
aF0.0
aF-0.02658566837869936
aF-0.03367236077462026
aF-0.07401533745424663
aF-0.10805970630935091
aF-0.08989046906353544
aF-0.549126569994807
aF-0.15923282564950353
aF-0.030681935817083113
aF-0.059509390362078876
aF-0.053399375008903696
aF-0.0882112310429706
aF0.011001091511033439
aF-0.10303872093331191
aF0.06542198515428033
aF0.0011170753429271887
aF-0.06170871041847966
aF0.06489650107966465
aF-0.015891216548745306
aF-0.021197964589000095
aF0.0991161492359609
aF-0.04948535323039337
aF-0.04520443233003586
aF-0.04450333960755617
aF0.0
aF-0.021584287766760912
aF0.05122012540229749
aF-0.04738395161660846
aF-0.07304500415897905
aF0.01808814806385009
aF-0.04459837680321935
aF-0.10686590275196647
aF-0.021867087802779534
aF-0.01881438462285695
aF-0.4144826260537507
aF-0.04536490041478618
aF-0.023415890511187462
aF0.0
aF-0.03871402527519596
aF-0.023225842439638697
aF-0.05610729684846022
aF-0.008285510253551375
aF0.014078603874814265
aF-0.09318553780179659
aF-0.00948648293878527
aF-0.040590750369806944
aF-0.07635095163359235
aF0.06627713192043398
aF-0.02685585285603539
aF0.015672264147479062
aF-0.29707051007306984
aF-0.03646894179112846
aF-0.055315785335638606
aF-0.03305893681736433
aF-0.059074674154180225
aF-0.09337224262450984
aF0.03802793587385376
aF0.0
aF0.06437432124620042
aF0.07116447690251661
aF-0.01207737475010977
aF-0.08013808041938658
aF-0.10543503322553094
aF-0.049223348471491256
aF-0.09573236576186425
aF-0.022569002010717182
aF0.0
aF0.0
aF-0.5110472711453037
aF-0.054099346887369414
aF0.3630414158556431
aF-0.04751719968390714
aF-0.0473974479919891
aF0.006990851051716596
aF0.0
aF-0.047469105672897666
aF-0.06863442703049052
aF-0.02897473248646583
aF-0.0683732407375728
aF0.0
aF-0.22091040485951977
aF-0.05
aF-0.048302962764873815
aF-0.005536461737908449
aF-0.048302962764873815
aF-0.024796728948902617
aF0.03463727370828076
aF-0.07388574442899891
aF-0.1473767112056733
aF-0.05987503941110653
aF-0.04654625210185393
aF0.09950662091596668
aF-0.18528832008186719
aF-0.052448684993739385
aF-0.18192412329130564
aF-0.04204800169305545
aF-0.007751351898085859
aF-0.06487167375961157
aF-0.03737773288781336
aF-0.037001923529872034
aF0.0
aF0.0
aF-0.05979457917337309
aF0.0
aF-0.0007065415892247642
aF0.018321369917609097
aF-0.012645125050643325
aF-0.2008693067545927
aF-0.09136656536602628
aF-0.01626925248943054
aF-0.03281637274614839
aF-0.06707758579794605
aF-0.058473901002807964
aF-0.017021520020841518
aF-0.040803803673591515
aF-0.04751406732750961
aF-0.1579174669764501
aF0.0
aF-0.15180744551736414
aF-0.06923867293147146
aF-0.12232371603376287
aF-0.02192653163848334
aF-0.0754140333866551
aF-0.040576063941961005
aF-0.015987827559951033
aF-0.02563299441152019
aF0.0
aF-0.02474786779189799
aF0.009774640442921603
aF0.07379522366728038
aF-0.007492111617194874
aF-0.04362934448215694
aF-0.08218214999859341
aF0.017513521861363908
aF-0.06314248040933006
aF-0.046129343648384065
aF-0.06825236240169393
aF-0.04484774095616305
aF-0.04909879771367513
aF-0.21277825161118552
aF0.05638856381853022
aF-0.000377754866479868
aF-0.043499809787173965
aF-0.041051143499486825
aF-0.020973109820933415
aF-0.02645096579155598
aF-0.04209373103104733
aF-0.1040861959049531
aF-0.061465498895313775
aF0.07090467868630328
aF-0.035615502910578085
aF-0.04582063021528593
aF-0.022273637896517817
aF-0.034413459523328783
aF-0.0019641814109067485
aF0.0648325235611127
aF-0.08370779124927724
aF-0.04254941518132094
aF0.009363400769797185
aF0.0933808704504408
aF-0.05475679965261046
aF-0.03844201378274956
aF0.2667504728489775
aF-0.02717203561390761
aF-0.026527913007632378
aF-0.09609742481194482
aF-0.031669684429221356
aF-0.045496825049602785
aF-0.10858823080365716
aF0.012876382714578076
aF-0.04657381272672261
aF-0.20169332375578633
aF0.038363224086193484
aF-0.3078525491150574
aF-0.10723361619794375
aF0.05962473005893945
aF-0.14076861878343383
aF-0.2687339410688624
aF-0.21225836140576962
aF-0.047469105672897666
aF-0.02873931086928488
aF-0.11140351702919156
aF-0.027618616630680527
aF0.05638856381853022
aF-0.07760730465553227
aF-0.01637505137228052
aF-0.2072475851192817
aF0.0
aF0.01108611269757872
aF-0.3258448007844014
aF0.13130004443319976
aF-0.04154299215508832
aF0.012675874263838285
aF0.13249068198041652
aF0.05419585409120845
aF-0.07248623047656987
aF-0.0004378875730327511
aF0.015909162576953878
aF0.0
aF-0.1404511328814579
aF0.0028475295780077646
aF-0.45902776445652904
aF-0.03681626428371491
aF-0.06671041027728694
aF-0.03574825881732064
aF-0.01823268925456855
aF-0.08224978148439063
aF0.025165882671826414
aF-0.025316947353406
aF-0.054108546997352576
aF-0.1688718937389979
aF-0.027022145655230256
aF0.06060696936323819
aF-0.01622522191025482
aF-0.05024619644822286
aF-0.04359699692150147
aF-0.1549309155487716
aF0.0
aF-0.08793258662224916
aF0.010727266760651527
aF-0.07124984555362958
aF0.044836864718481535
aF0.010331296892110521
aF0.0
aF-0.01233563854651854
aF-0.0255219870583782
aF-0.009826151070753346
aF-0.024650453501981334
aF-0.05262790867767258
aF-0.15870064664494352
aF-0.1953121482278743
aF-0.05023975337083378
aF-0.0738398414491539
aF-0.04937175377266713
aF-0.05641276841083304
aF0.0
aF0.05301870788742036
aF-0.01824847432644206
aF-0.10604835475216834
aF-0.12114858168407394
aF-0.046873583040368316
aF-0.043168575533521825
aF0.025090770214119158
aF-0.037232586236392806
aF-0.0357850718183714
aF-0.11604006995018867
aF0.035725869430416064
aF-0.01637505137228052
aF0.03542963596671575
aF-0.019972537810333403
aF-0.021026623013671173
aF0.0689453003950685
aF0.061227598337422695
aF0.058896548314006196
aF-0.004863552941991006
aF0.07275598725942742
aF0.007562230795719379
aF0.015134816876646258
aF0.06174324549229067
aF-0.19123543243066976
aF-0.19087820981897818
aF-0.01817429466666473
aF-0.00830704562614438
aF-0.018256190665439695
aF-0.025583767958583494
aF0.0
aF0.0
aF-0.12218891757092976
aF0.0
aF-0.027701428506741118
aF-0.04710875401065514
aF-0.031669684429221356
aF0.09817395745687545
aF-0.07531775646517817
aF0.0
aF-0.042923412688474376
aF-0.03088599264879074
aF-0.11178323199102128
aF-0.09884546980641826
aF-0.10507036472632027
aF0.0
aF-0.1323201420315699
aF-0.04937175377266713
aF-0.05024619644822286
aF0.009232161652993294
aF-0.014219355667388828
aF-0.044330239872923415
aF-0.04540749539791886
aF-0.13776768055802885
aF-0.1988509185861669
aF-0.048302962764873815
aF0.0641880840655553
aF-0.09136656536602628
aF-0.0516141848934793
aF0.11231531548123115
aF0.0
aF-0.03060253960974653
aF0.0425868753080366
aF-0.04484774095616305
aF-0.04359760311013819
aF0.2448231429568404
aF-0.027917827767369986
aF-0.03864296677768589
aF-0.08415535144827277
aF-0.04395192559202106
aF0.0
aF0.03041900485502865
aF-0.045958886803305884
aF0.06284462284770734
aF-0.07025166149387062
aF-0.04836777191349477
aF-0.04318721878513068
aF-0.060250720808418756
aF0.06258086372027839
aF0.06284462284770734
aF-0.11619081786251524
aF0.0
aF-0.013947626291468812
aF0.0
aF-0.06904079606089925
aF-0.034750489064447304
aF-0.04584233458640922
aF-0.01751531112907194
aF-0.12252233176189517
aF-0.06339827584718088
aF0.08046726339997086
aF-0.10619088669731651
aF0.0
aF-0.05838084835327923
aF0.02476639384993854
aF0.07221619961938124
aF-0.23491356724573775
aF0.0527715535180761
aF-0.05197474951348133
aF-0.13607331329240488
aF-0.03234758259169566
aF-0.15981729223922275
aF-0.01864761768251237
aF0.06908605303118182
aF-0.089829261171328
aF-0.04978343305745
aF-0.006336549460379766
aF0.06808397969661749
aF-0.07701917469045039
aF-0.18647905460991976
aF-0.013947626291468812
aF-0.047737850682540474
aF-0.014316359478538383
aF-0.10943722777587914
aF-0.020107764444201353
aF-0.025583767958583494
aF-0.09508630609077451
aF-0.06279806245584221
aF-0.03335619815739614
aF-0.04928078307407228
aF0.057542816527900345
aF-0.1893432123718917
aF-0.04790587362927154
aF0.007587104176737303
aF-0.04947727073478995
aF-0.03763678743033938
aF-0.04080567218386166
aF-0.21628383449154415
aF-0.03790549920511465
aF0.11072636749067043
aF0.09950662091596668
aF0.0
aF-0.10242642632927601
aF0.10694108994322651
aF-0.04557305036973483
aF0.05970822079218781
aF-0.06475263258444616
aF-0.048080339405277235
aF-0.024417395860942454
aF-0.09493505115953922
aF-0.0427917154388764
aF0.18099802582081465
aF-0.036351305001037726
aF-0.03464614606529678
aF-0.03386125928024052
aF-0.035845327314330794
aF0.02491774885672232
aF-0.03492335972570605
aF-0.028976091709247177
aF-0.029657658193888797
aF-0.17735292394247
aF-0.2757966091401244
aF0.0
aF-0.052448684993739385
aF-0.06789859246507209
aF-0.04785374682702133
aF0.04851506736714066
aF-0.2846472095531074
aF-0.42501679035186507
aF-0.08798429899757387
aF-0.37669940916819666
aF0.019457583194605686
aF-0.02563299441152019
aF-0.0394539296572405
aF0.0698908186510159
aF-0.2043222520303089
aF0.06721091516174875
aF-0.007751351898085859
aF-0.10621042725184997
aF-0.03514767921295706
aF-0.03574825881732064
aF-0.0346389026610175
aF-0.06113152683102543
aF-0.041459469585082745
aF0.0054099314961919415
aF-0.0801691317767799
aF-0.04094788131363488
aF0.059408854377003675
aF0.0026173247340394445
aF-0.04359760311013819
aF0.07116447690251661
aF-0.04836956022991737
aF-0.08764490378180281
aF-0.028290893290190057
aF-0.05250242468746526
aF-0.11065241963267136
aF-0.25786515066727544
aF-0.04972834358664346
aF0.04802428118858694
aF-0.06526893811366183
aF-0.1560714166561377
aF-0.03438403015852536
aF0.0
aF-0.03521936368205344
aF-0.04016410525291701
aF-0.05270306266138137
aF-0.048677836871828806
aF0.0156665686727019
aF-0.0976268051268138
aF-0.0030443782208137457
aF-0.04865961032672096
aF-0.05834001681383011
aF-0.05099145892627725
aF-0.04378813535544731
aF-0.0032360957551572376
aF-0.02319512407246212
aF-0.041961912731993414
aF-0.07292491213872387
aF0.019019666185959315
aF-0.01637505137228052
aF-0.03305609935811702
aF-0.10204442955246407
aF-0.03325508615585529
aF0.06872905010088452
aF0.020874509585564513
aF-0.02989439268026049
aF-0.09236906689639442
aF0.10318351631213915
aF-0.09890648414762993
aF-0.025674928371766128
aF-0.11536789387428664
aF0.07675777623526492
aF-0.009938545380448117
aF-0.04359760311013819
aF0.0
aF-0.03604664161967873
aF-0.008818500100933298
aF-0.04784948807057326
aF-0.020354045647583016
aF-0.06498480198257489
aF-0.03872325504691159
aF-0.03306678498812543
aF0.07787366979638798
aF-0.027377538363332933
aF-0.017303067931325782
aF0.06437432124620042
aF-0.062470521512188085
aF-0.03551401268021026
aF-0.022835944031760372
aF0.01365651734731146
aF-0.30415949688266897
aF0.07205846675347999
aF-0.08365061397547627
aF0.0
aF-0.4646329551396195
aF-0.04882156991370546
aF-0.057488760546583265
aF-0.006607180293930762
aF-0.07963826693505886
aF-0.02133948206229207
aF-0.039397901228586295
aF0.0568936985780004
aF-0.0814755539907446
aF0.232127963716454
aF0.0933747289853567
aF-0.0183796890767887
aF-0.037482081508848686
aF-0.09463679179924814
aF-0.08249881095388852
aF-0.0470398414533022
aF-0.09390582859921148
aF-0.004967317120239945
aF-0.043730586072589554
aF-0.030681935817083113
aF0.049844893005663055
aF-0.2492187072851956
aF-0.17653060353916278
aF-0.040576063941961005
aF0.0007797362698439628
aF-0.010886349385309017
aF-0.022835944031760372
aF0.0
aF-0.07660800399939141
aF0.1640090539234934
aF-0.021253731815861498
aF0.0
aF0.024156177332170237
aF-0.11907141226616355
aF0.05850713303253699
aF0.058896548314006196
aF-0.03625293423317636
aF0.03877346749681153
aF0.05362535395536636
aF-0.012443800433914281
aF-0.04115021890009047
aF-0.1933525405577289
aF-0.10544824981600721
aF0.0
aF-0.2974522490019772
aF-0.1260117798529286
aF-0.018903753420641062
aF-0.07827184322912867
aF-0.06086406285602389
aF-0.18392324704995444
aF-0.040237036269071054
aF-0.09185008621662084
aF-0.050790712389181945
aF-0.038942768488903545
aF-0.11496763266029816
aF0.06437432124620042
aF-0.1442855916840703
aF-0.012694110588353331
aF-0.036843240008581135
aF-0.08627768381692896
aF-0.04005567200742057
aF-0.22855589215432462
aF0.08148490640183209
aF0.05962473005893945
aF-0.017021520020841518
aF-0.02021082529950666
aF-0.05835552956036258
aF0.0718202068831858
aF0.0
aF0.057542816527900345
aF-0.14816768515255163
aF-0.19223489640353814
aF0.0
aF-0.09436577756337856
aF-0.061684176162936345
aF-0.27570911676585214
aF-0.12806674730583367
aF-0.05458931532315757
aF-0.07968195150319729
aF-0.03060253960974653
aF0.09817395745687545
aF-0.04617779262911582
aF-0.041961912731993414
aF-0.036684746287822104
aF-0.057343559433625436
aF-0.10837480591899178
aF0.02380761049795683
aF-0.0882587275434483
aF-0.014316359478538383
aF-0.1366819292161471
aF-0.3261462018908862
aF-0.0563513473923583
aF0.0529731582860125
aF-0.04437530433198078
aF-0.036916189642841206
aF0.0020145328260581727
aF-0.24896824557732225
aF-0.04654625210185393
aF-0.3719604348315441
aF-0.07713910472878724
aF-0.07899775188476772
aF-0.000377754866479868
aF-0.05120057866864957
aF-0.3589258724068935
aF-0.04149182874641544
aF0.06729467009599431
aF-0.2603033409682437
aF-0.03861007732457269
aF0.0698775657187688
aF-0.024531219136201567
aF-0.00913923784973264
aF-0.04606480000975081
aF-0.14370106392581233
aF0.08701696470343061
aF-0.055143575042341894
aF0.0011167633011765835
aF-0.093202424282688
aF-0.23800264928935194
aF0.09950662091596668
aF-0.1302547604439177
aF0.02111346144769739
aF0.0
aF0.07973426452904896
aF-0.05192722778439372
aF-0.03178308595104539
aF-0.04484774095616305
aF-0.1058267040246855
aF-0.15279732143916966
aF-0.09659531082973563
aF-0.03496540554369815
aF0.062068736553300335
aF-0.13520332166325388
aF0.0811233772006247
aF0.12838697229509127
aF-0.10455332181195712
aF0.03350844244577126
aF0.10447266251371012
aF-0.019377191762847155
aF-0.04161414815121153
aF-0.07036370498053532
aF-0.04978343305745
aF-0.02666333630320904
aF-0.008800524784738924
aF0.09610164592044654
aF-0.1309481874606418
aF0.07330785709717844
aF-0.05519204819462811
aF0.0
aF-0.043372398371813455
aF-0.04617779262911582
aF-0.033394192126097996
aF-0.08474840188911655
aF0.0
aF0.058825635726456105
aF0.0
aF0.25321600790739224
aF0.02866614675993908
aF-0.06318202971441353
aF-0.03743320697776928
aF0.0
aF-0.054031330010234906
aF-0.06395631428750848
aF-0.12642191717374124
aF-0.08762428657576629
aF-0.049517735940103905
aF-0.021843228211940454
aF0.0
aF0.00982991526842994
aF-0.17994519069444817
aF0.0
aF-0.10311861959622869
aF-0.03544607024873925
aF0.0
aF-0.3686468122286519
aF0.06959341778428833
aF-0.04597373665329104
aF-0.025501430267525424
aF-0.2932643970706288
aF-0.2526468125740333
aF-0.035914884423529546
aF-0.04466080011015195
aF-0.07267830472264131
aF-0.18379988815596435
aF-0.08924557819025554
aF-0.028477318760206122
aF0.0
aF-0.012216651822341223
aF0.010314226062765525
aF0.007268413397035864
aF-0.006213269334602416
aF-0.011941237634292673
aF0.0
aF-0.12360861369132434
aF0.06332881238892736
aF-0.09261960993755824
aF-0.20517420156816588
aF-0.14106632794222784
aF-0.02062927408107058
aF-0.03408713138811143
aF-0.04710875401065514
aF0.11917618988411588
aF0.0
aF-0.06178576056035166
aF-0.03564512574675088
aF-0.006521489758748599
aF-0.006521489758748599
aF-0.10510339814885748
aF-0.07507977688355763
aF0.05850713303253699
aF-0.03863969942315243
aF-0.025708656154973687
aF-0.025589799075861626
aF-0.03438403015852536
aF-0.04710875401065514
aF-0.10197052144946586
aF0.013988037107601284
aF0.07156940304871992
aF-0.02624039722449134
aF-0.02427062186584776
aF-0.04104675787395502
aF-0.023098587016254307
aF-0.12198130034222862
aF-0.030254989334263613
aF-0.04688979791700733
aF-0.07522034304120769
aF-0.06157189711302719
aF0.0
aF-0.03013077506537905
aF-0.04836956022991737
aF-0.07453468293114618
aF0.0
aF0.0
aF-0.009273233393330936
aF-0.011051125399034835
aF-0.19756152258604143
aF0.003913550517943204
aF-0.07306486007574398
aF-0.08888926216408595
aF-0.03740505112886993
aF0.04701482731141472
aF0.048407184362707724
aF-0.12353393693116914
aF-0.14107777152627868
aF-0.02233438076231978
aF0.0
aF0.06959341778428833
aF0.0
aF-0.04844910495072565
aF0.07775606325535281
aF0.11109040252486455
aF0.0
aF-0.03997514235000566
aF0.0
aF-0.015250293729181505
aF0.02711552239501161
aF0.06453111502457942
aF0.021203165093078152
aF-0.02717203561390761
aF-0.036402318148311893
aF-0.04617779262911582
aF-0.03345715680606831
aF-0.05405572642334483
aF-0.04693851745165001
aF0.0
aF-0.21325099623378424
aF-0.03398341299653122
aF-0.1861067495661375
aF-0.031767412270567945
aF0.06959341778428833
aF0.1356510651798124
aF-0.22303508181132373
aF-0.05087944593972223
aF-0.04855735316513446
aF-0.01823268925456855
aF-0.009475957244048639
aF-0.0726421530647742
aF-0.07522110266957693
aF-0.03438403015852536
aF-0.03820891912953747
aF-0.06739264727382076
aF-0.2117171258440443
aF0.0
aF0.06959341778428833
aF-0.04099178131038419
aF-0.04617779262911582
aF-0.049425451413296184
aF0.025166400874778734
aF0.03728016975175439
aF0.017608143698013036
aF0.0
aF-0.02463793010127066
aF-0.03316357429252672
aF0.0
aF-0.09363084798870244
aF0.06332881238892736
aF-0.04348533155889084
aF0.18395238492803
aF-0.04909879771367513
aF-0.04333604317414282
aF-0.04033868764617232
aF-0.06309581313299018
aF0.05691472969749866
aF-0.020836778666556643
aF0.0
aF-0.04215500827718412
aF-0.004152990138156807
aF-0.04098921586506001
aF-0.042960886466296026
aF-0.07131509548077274
aF-0.03013746583461424
aF-0.004827213629930938
aF-0.03763678743033938
aF0.035290533597104816
aF-0.03438403015852536
aF0.11357968507869767
aF-0.03737773288781336
aF-0.051780525501985246
aF-0.03315609017510642
aF-0.038681691251565654
aF-0.10329078518279491
aF-0.04842148506080268
aF-0.15353805242835897
aF-0.04283764697731942
aF-0.0222819949907014
aF0.05564946571472184
aF-0.08134810662180444
aF0.0
aF-0.05255111234576243
aF-0.06576787035641139
aF-0.02233438076231978
aF-0.030254989334263613
aF-0.02563299441152019
aF-0.02423158049664944
aF-0.16509100282446215
aF-0.033058628043600415
aF0.053558170253240216
aF0.05528377984288524
aF0.007509014912493013
aF-0.012747443711286367
aF-0.014418231677667934
aF-0.05781861309400366
aF-0.04959254137343703
aF-0.037960829090959464
aF-0.03972150857595874
aF-0.050321725258778295
aF-0.13823851232611162
aF0.0
aF-0.056057824235350974
aF-0.08926638273028971
aF-0.32918029337003757
aF-0.005847753547851009
aF0.0
aF0.003541758331568342
aF-0.06634025688324494
aF0.016215076530955944
aF-0.07023624560245582
aF-0.04836956022991737
aF-0.06795008596276456
aF-0.030254989334263613
aF-0.04617779262911582
aF-0.15465360819141422
aF-0.024939370889852996
aF-0.15137198388022652
aF0.05541234736529769
aF-0.0851199337915078
aF-0.03089588885459842
aF-0.04959254137343703
aF-0.03438403015852536
aF-0.05610792759592824
aF-0.047577141290730866
aF-0.01769144867713529
aF-0.08417647119020405
aF-0.050600655900729874
aF-0.022569002010717182
aF-0.09111472434069684
aF0.03139330545770651
aF0.034742956209613346
aF-0.030922644992351447
aF-0.22336398931931073
aF-0.11283744415651198
aF-0.041774831082663846
aF-0.057210640466833745
aF-0.20722126174724292
aF-0.02192653163848334
aF0.0
aF-0.04427329188010661
aF-0.02148595543877226
aF-0.13273386027517609
aF0.060900665277568725
aF-0.07273716579899371
aF-0.061321091923620424
aF-0.12703427185216662
aF-0.03377081572562839
aF0.08279595643033467
aF-0.019339303398098903
aF-0.05104246476959243
aF-0.07845191951153588
aF0.06627713192043398
aF0.0
aF-0.060487255660198594
aF0.0
aF0.03646104298103382
aF-0.06963532109647652
aF0.05962181375741946
aF0.09948424951513588
aF-0.04186431114445085
aF-0.03048082901608471
aF-0.104539699708424
aF-0.22156763263572196
aF0.07995805474797334
aF-0.2634958015145691
aF0.0
aF0.05786486287084516
aF0.00107305670496982
aF-0.05255335701854621
aF0.0
aF-0.04352417099674802
aF0.11906995806983414
aF0.0
aF0.0
aF-0.021749681627110138
aF-0.03666575061201842
aF-0.086985279003336
aF-0.022930685522860095
aF-0.07659746122953466
aF0.21956399462059908
aF0.08420088871933183
aF0.07712457801624986
aF0.0
aF0.0
aF0.028095988473619618
aF0.03864585045319037
aF-0.19252200378233594
aF-0.07456394102249789
aF-0.09520483414917236
aF-0.04395655635254263
aF0.037051711326312256
aF0.0933747289853567
aF0.09000249689179032
aF0.07791230067084293
aF-0.009358481862772217
aF-0.08172285146160216
aF0.07060502928488195
aF-0.06789444894342117
aF-0.03864194159531592
aF-0.024838435721195457
aF-0.066512015600106
aF-0.04238133480141808
aF-0.09905606854842529
aF-0.04124740046632634
aF-0.026796311619107244
aF0.023422401411884886
aF0.06799562356794171
aF0.06613256068828194
aF-0.03488804519475349
aF-0.03680884387001081
aF0.059934056656636536
aF-0.02934022037146058
aF-0.09564643526424213
aF-0.03016263129538612
aF-0.07871223341105298
aF-0.05909695790797103
aF-0.02892441919800441
aF0.0
aF0.0
aF-0.005916085245452582
aF0.054273501366766855
aF-0.08814279853286304
aF-0.13989270941815699
aF-0.10436381815273643
aF0.0629658592928042
aF-0.026694642381567702
aF-0.05467369952228741
aF-0.11122522524082315
aF-0.04280844575765955
aF0.047157181923995206
aF0.038862710926098526
aF-0.003230080289494784
aF-0.002119008482476953
aF0.18907952350567528
aF0.0
aF0.04104727883853318
aF-0.09231750835214825
aF-0.04427897223937421
aF-0.01626925248943054
aF-0.0273238140419386
aF-0.1099932025362003
aF-0.014674870040920397
aF-0.15763586193912363
aF0.002392315865371343
aF-0.008736788368324961
aF-0.03106861868560825
aF-0.0028467987278633818
aF0.0
aF-0.03971632195475839
aF0.06513757036753492
aF0.014245389998764487
aF0.0
aF-0.015278970912315068
aF0.07624223898382149
aF0.030333069556134296
aF0.07423942221760212
aF-0.04142057684495528
aF-0.028660337516138126
aF-0.09119022046010464
aF-0.030354945706169686
aF-0.09616315219342343
aF0.11751032643445468
aF0.08058857342772033
aF0.06864945505834533
aF-0.07427172571819571
aF-0.06530882875841044
aF0.0268439191813336
aF-0.06833369196615904
aF0.008958826784740023
aF-0.024939370889852996
aF0.0
aF-0.019441604063623996
aF-0.032049777811988416
aF0.0
aF0.03523775920476062
aF0.02494321377268478
aF0.0033221779287114727
aF0.0
aF-0.017021520020841518
aF-0.13013066109812288
aF-0.058606039051165626
aF0.015585385131217235
aF-0.08804813607216302
aF-0.030334785576143525
aF-0.07932427276723802
aF0.07548611152367837
aF-0.05783868263142979
aF-0.07601746839527677
aF-0.006590422994741833
aF0.03493769878920616
aF-0.050305173093486456
aF0.01526984044985177
aF0.11471413525132446
aF-0.05450188457914337
aF-9.989765196844608e-05
aF-0.004734387530388823
aF-0.08143220753848038
aF-0.008285510253551375
aF-0.010361663774813805
aF-0.0674853548579899
aF-0.03768454888947672
aF0.0
aF-0.04205877655862378
aF0.0
aF-0.02542480921623373
aF0.001579851996340552
aF-0.043952640816383795
aF-0.02753149070625188
aF-0.041962958794931074
aF-0.0074479667969860296
aF-0.025509317121982632
aF-0.16318791454084244
aF-0.06828785771761058
aF-0.02826947135042537
aF-0.050677349163711784
aF0.025234996720462706
aF-0.005372630226116163
aF0.18099813796655867
aF-0.06216161208938071
aF-0.0417437565095473
aF0.0
aF-0.04104675787395502
aF-0.01993467653727075
aF-0.019666934787864784
aF-0.030755696904748383
aF-0.017692294002210285
aF-0.02653503880557611
aF-0.020728732537515095
aF-0.02855335003137174
aF-0.11534042690285695
aF0.019001618436838397
aF0.06808397969661749
aF0.03280116269086572
aF0.0
aF-0.05363033794641978
aF-0.05815378755712911
aF-0.11678941565674414
aF0.0031631264202030764
aF-0.037244371143573304
aF0.010918487788685115
aF-0.0776563480914015
aF0.03325580314265742
aF0.0019552523910332555
aF0.0
aF-0.10040680970594931
aF0.08148490640183209
aF-0.03261561995534226
aF-0.01824847432644206
aF-0.06957063187581769
aF-0.09571988083662644
aF0.049126616337096696
aF0.08778731061091058
aF-0.06000264125045761
aF0.028465903893590563
aF-0.017134233255602465
aF0.0
aF-0.01248077973331407
aF-0.03974072662436288
aF0.0
aF-0.05140352624405205
aF0.00789466507456527
aF-0.08091728420794359
aF0.13856842399566582
aF0.03598537353341178
aF-0.04937873053149612
aF0.06808397969661749
aF-0.031144778161406508
aF-0.06852631211500806
aF-0.05638288585572075
aF-0.03753906053694985
aF-0.06922556766129867
aF0.07828671429741069
aF0.1257745340014988
aF0.029355486312097195
aF0.0
aF0.009452360097125596
aF-0.0748802803274433
aF-0.07540588518729609
aF0.007823859813598927
aF-0.05623320463730307
aF-0.095018412128447
aF-0.035811642988366116
aF0.0
aF-0.07046150337376436
aF0.08887940494659473
aF0.02292583185305708
aF-0.06092928021982441
aF-0.04104675787395502
aF-0.04071576366016656
aF0.06877049072750532
aF-0.014674870040920397
aF-0.03299682850027692
aF0.02198399785729309
aF0.0702328324037494
aF-0.04327286691747672
aF-0.010109380255526742
aF-0.02643594827328623
aF-0.01110470060491575
aF0.08638017436235243
aF-0.012197750038989161
aF0.06758298860313447
aF0.06270194807499103
aF0.0
aF-0.03072863935141575
aF-0.05313628072936108
aF-0.044548563429279334
aF-0.04620084612199457
aF0.06041888571313724
aF-0.024130213386261673
aF-0.056367383818517
aF-0.09853336746186979
aF0.06479811493973793
aF-0.2280077105131898
aF0.024350734134876935
aF0.05722362723903311
aF-0.03621308281809869
aF0.019811234922620338
aF0.007051938093382476
aF-0.11188119465646422
aF0.049126616337096696
aF-0.04498303149537583
aF-0.042598432150395785
aF-0.04081574397345483
aF-0.03904977302887433
aF0.0
aF0.07973426452904896
aF0.10839902328616956
aF-0.02315803530174481
aF-0.0410612626349287
aF0.06235169914526154
aF-0.04002478358974872
aF-0.06799783791924531
aF-0.008430725316652612
aF0.001181886168304204
aF-0.05837520304212181
aF0.036654414349701674
aF-0.044739071650416865
aF-0.009894670853551564
aF-0.02855335003137174
aF-0.02639939243429857
aF-0.03971483874874569
aF-0.061368470901676235
aF0.015192737546694323
aF0.06077532256803053
aF-0.0423823183158461
aF0.0
aF0.0
aF0.033371684703949175
aF0.017513388375708698
aF-0.1044604581982163
aF0.0
aF-0.13477698804185434
aF0.0014950969675313949
aF-0.039319260970372506
aF-0.009653999615268843
aF0.011706317745377665
aF0.002033703203355084
aF-0.023913220636853777
aF0.0
aF-0.06273130706123844
aF-0.034175501635459314
aF0.08785495352963779
aF-0.01687535141313552
aF-0.05023040285318145
aF-0.14491455571924064
aF0.0034287042755822006
aF-0.0750617101193719
aF-0.045477743370050075
aF-0.08208874079776264
aF-0.08290672203764796
aF0.078963735460292
aF0.012087617017244878
aF-0.08604109292983203
aF-0.023664183316265963
aF-0.04248018816947193
aF-0.03349794908305859
aF0.020302712376269537
aF-0.06150358987852648
aF0.09210447301228517
aF0.039880865900243624
aF-0.0915409139406454
aF-0.14879605817743352
aF-0.0021313594973834706
aF0.010485103249797135
aF0.0702328324037494
aF-0.04796842365985253
aF-0.015188914131065502
aF0.08298315996863205
aF0.09355624959576526
aF-0.059775953806221666
aF0.0039308586942544445
aF-0.05362653166440706
aF-0.014674870040920397
aF-0.1487761035255406
aF0.011979685018405233
aF-0.051664242385014394
aF0.04722142944410172
aF0.008043238075244048
aF-0.04154379127915005
aF-0.02637654463784947
aF0.0
aF0.031350104387849693
aF-0.06943815613452645
aF0.10201044072107092
aF0.13433852955531536
aF0.024766675741745504
aF-0.07526763967076144
aF-0.03912777982318007
aF-0.07810774439312593
aF0.05946655303167384
aF-0.08568624478165625
aF0.09125921135715254
aF-0.1435128611817164
aF0.08986018351466907
aF0.07164811558342928
aF-0.07095151934457478
aF-0.04327286691747672
aF0.10244569149334551
aF-0.00979602195648201
aF-0.02393010828632285
aF-0.07703963315097151
aF0.06589218234007609
aF-0.060664297072943935
aF-0.004279229785591311
aF0.08638017436235243
aF0.0
aF0.06435760458992405
aF0.004055852934400731
aF-0.09266382097752085
aF-0.049130931359617075
aF-0.013883687458998525
aF-0.04199481867313762
aF-0.009897070646078674
aF-0.023899819802629466
aF-0.03738305300381609
aF-0.15361299517599425
aF-0.05047715211364993
aF-0.039822295157109194
aF-0.1745330845859506
aF-0.029082176066329186
aF-0.0693717923163412
aF-0.055155054717856936
aF-0.17355640944182824
aF-0.035974943215665765
aF-0.07327642818905339
aF-0.00269839259678812
aF-0.12047843111271182
aF0.0
aF-0.04204800169305545
aF-0.04392908470128412
aF0.0702328324037494
aF-0.06731493782383897
aF-0.2024122962958196
aF0.05778659499486899
aF-0.10490043572084863
aF-0.01571555790435182
aF0.016356152939863446
aF0.06785204203129296
aF-0.03072863935141575
aF0.1330642270208983
aF-0.052471985041163266
aF0.03292792119564269
aF-0.04712222383789387
aF-0.06391591488527859
aF0.0
aF-0.08604104667797928
aF-0.025928686199924
aF-0.08643015805246988
aF-0.08776442298799887
aF-0.0779306959652099
aF-0.006862693037759396
aF-0.03568745202879007
aF-0.04693851745165001
aF0.0689453003950685
aF-0.1294384324720471
aF-0.022783393979992232
aF0.0031861285269795293
aF0.06085097456209244
aF0.011559465830570145
aF-0.0009339509289631965
aF0.02610198480061679
aF-0.03758273892248235
aF-0.029940670278962158
aF0.0721583109637951
aF-0.05482021534269305
aF-0.016582807556756195
aF-0.07369750943374734
aF0.0
aF0.015426146180712572
aF-0.008798718821459306
aF0.0
aF-0.0558981116773198
aF-0.13014469445935298
aF-0.11148023649791412
aF-0.07611611699221739
aF-0.031566526904826725
aF-0.07279042849142377
aF-0.009852428274621551
aF-0.042872176872631944
aF-0.02278743752869495
aF0.03004781802795011
aF-0.028404187663341584
aF0.21082755608377898
aF0.08875744879564189
aF-0.05802715661242522
aF-0.02551865136796911
aF-0.08201679017719324
aF-0.027709296365084055
aF-0.031178438326941112
aF0.024866480207753568
aF-0.014988476883894163
aF-0.018031033422149286
aF0.030949286826876983
aF-0.03305609935811702
aF-0.03616437002616343
aF-0.06779094144833964
aF-0.04961763192896401
aF0.05380304548991777
aF-0.042137733306055795
aF-0.02293583744356041
aF-0.02577076632025675
aF-0.10159517238897592
aF0.07290725611854545
aF-0.056808160908904864
aF-0.01871145734774308
aF0.08834197017533632
aF-0.04941315143239853
aF-0.12828864049959587
aF0.03707288731798091
aF-0.010208798303762964
aF0.011876624514521553
aF0.03658906702079229
aF-0.06614221036495821
aF-0.0672644532664297
aF0.09950662091596668
aF-0.0612093204334071
aF-0.03603747829960169
aF-0.02837027562540673
aF-0.04842932756712267
aF-0.03618984014035201
aF-0.07125107828501823
aF-0.02855335003137174
aF0.06345934062823119
aF-0.044379957869626584
aF0.07548611152367837
aF-0.0625007219633958
aF0.0
aF-0.0871996372760579
aF-0.05535751556844425
aF0.0
aF0.05946655303167384
aF-0.12564968446729463
aF-0.007101610437325292
aF-0.045549137889102566
aF-0.01824847432644206
aF-0.048924964112746515
aF0.04186049368143555
aF0.023721468579346566
aF0.07974095922991298
aF-0.0417437565095473
aF-0.03372376107019086
aF-0.10946255137631161
aF0.07583013365959733
aF-0.05988859818255078
aF0.01392273964367928
aF-0.024194674104665595
aF0.07548611152367837
aF-0.03411608241858187
aF-0.007520562154009188
aF-0.03475885625304874
aF0.05524548242031175
aF-0.09535076890741848
aF-0.027268775135938825
aF0.03130284541914775
aF0.01595910551197237
aF0.0
aF-0.02434190245934946
aF-0.021970299307079375
aF-0.014301181039305923
aF0.10140837058040283
aF-0.02244514417237558
aF-0.04433736441378519
aF-0.049156501119667635
aF-0.06127487811015672
aF0.01895637926240999
aF0.0
aF0.030430698394687955
aF-0.0362034525421551
aF-0.11158093536991928
aF0.06433664822683066
aF-0.05765352528975639
aF-0.09819897866422969
aF0.0070656521942168565
aF0.12998720257644614
aF-0.1397224274135894
aF-0.025414205695587416
aF0.0
aF0.015507528376585384
aF-0.019154547987208642
aF-0.03625293423317636
aF-0.10361119484846099
aF-0.03093295821255315
aF-0.04703545620755638
aF-0.07510526431326428
aF-0.030010796134687847
aF-0.028382222183498437
aF-0.023503475475482767
aF0.09817395745687545
aF-0.05859666822187777
aF0.09817395745687545
aF-0.05306105554144025
aF-0.125429649097277
aF0.03208721247387686
aF-0.1135091997239285
aF-0.034056510354169095
aF0.05361775003318134
aF0.0
aF-0.046656249232288706
aF-0.04707637118022651
aF-0.08598092302123742
aF-0.05547206624402311
aF-0.1300222753020503
aF-0.02685585285603539
aF-0.06527430765903319
aF-0.07099262094141884
aF0.0
aF0.0
aF0.021066437360249796
aF-0.04637952959958864
aF0.0
aF0.0047452278613809365
aF-0.019698165704672484
aF0.03465276676465669
aF-0.041666042439767445
aF-0.03060253960974653
aF-0.058679486221607
aF-0.03269934024581061
aF0.05769667076373336
aF-0.0417437565095473
aF-0.10367239535362312
aF0.055962959625221596
aF-0.02855335003137174
aF-0.022811586794586596
aF-0.03239198174754057
aF-0.008724246650672013
aF0.0
aF-0.024716527787173256
aF0.0
aF-0.022539214398772732
aF0.039669703086951946
aF-0.020365671652054246
aF0.07484678751023854
aF-0.015278970912315068
aF-0.04608114073237668
aF-0.034979920404095005
aF-0.1349277009288031
aF-0.0034084021430602074
aF0.09622892331566611
aF0.07973426452904896
aF0.0006588567199115655
aF-0.06763227182449769
aF-0.11912622843143188
aF-0.16277238514062004
aF-0.04370207060918417
aF-0.04667561687380654
aF-0.053631445245428164
aF-0.04292143642549799
aF-0.10447676339558228
aF-0.14123141860591298
aF-0.12468374404000225
aF0.14758018871500583
aF-0.01878719910802823
aF-0.06319600191452718
aF-0.037833207584451994
aF0.06340508313402078
aF0.08148490640183209
aF0.0
aF0.020961385545320056
aF-0.007189217854197804
aF0.07290512008609697
aF-0.028841745605455438
aF0.008373523150829275
aF-0.08694336274380206
aF0.049160248622587485
aF0.0
aF0.1120605567400626
aF-0.0307606053854669
aF0.07272483582978276
aF-0.12058603961478995
aF-0.0977210981810362
aF-0.057616347359151866
aF-0.04359699692150147
aF-0.015466339699984816
aF-0.07145574574432327
aF-0.004901964840179844
aF-0.02664459428239533
aF0.023616829522389124
aF-0.0754796570240451
aF0.12207923695461381
aF-0.05977789769481731
aF-0.16107192670922973
aF0.0026987356508414197
aF-0.05024619644822286
aF-0.03385527230396828
aF0.005025564436439922
aF-0.1424919036325873
aF-0.0795555677182425
aF0.13020831938429528
aF-0.03531479417072604
aF0.06298015060013706
aF-0.027601890441100077
aF0.0
aF-0.05760732542097861
aF-0.05094296129782235
aF-0.029980501957201387
aF-0.04953173058912121
aF0.024504805854024383
aF0.07862432485207418
aF0.09211208766611058
aF-0.03432138142898713
aF-0.12270659292100809
aF0.08456045454687795
aF-0.05705014513318992
aF0.16955809998627297
aF-0.07245876195261389
aF-0.014279098552641313
aF0.12654922100955163
aF-0.03303521285155779
aF-0.0484522222599995
aF-0.0731815663942822
aF-0.11245540643285923
aF0.035234018224127875
aF-0.07382140493943486
aF0.08638017436235243
aF0.11808134847597561
aF0.10574289264990715
aF0.10130263558494255
aF-0.01097957986895624
aF0.12716755261585252
aF0.1709914809670516
aF0.06336972618525377
aF-0.11263801915020326
aF0.0
aF-0.1451412311551103
aF-0.008223003605927332
aF0.05141608714741397
aF-0.029812894797278628
aF-0.05724416199601372
aF0.09950662091596668
aF0.08865077649978119
aF0.032112978382366944
aF0.08600978241930955
aF-0.019861208985864853
aF-0.01884435312207711
aF-0.08752517634019666
aF0.05364700929046354
aF0.0
aF0.060625568397564014
aF0.059408854377003675
aF-0.11559442829317955
aF0.11443058036907122
aF-0.12448145853951388
aF-0.040719507421498276
aF-0.13592892009094962
aF-0.04282968183159841
aF0.09627329174000049
aF-0.05115484518571493
aF-0.05202538793033116
aF0.018023607398410933
aF-0.0648311110731772
aF-0.09316479947402768
aF-0.12572114987013322
aF-0.007499030639960793
aF0.024657295258978078
aF-0.13601720946392093
aF0.0026550882133265057
aF-0.05810106763808152
aF0.05465473467809763
aF-0.008969752566272029
aF0.09950662091596668
aF0.08639619118724945
aF-0.07265369892573514
aF0.05118156780837571
aF-0.033814673431750555
aF-0.05653338990051906
aF-0.09328747737756936
aF-0.1346043327623804
aF-0.1373075586011371
aF0.09817395745687545
aF-0.02125208847060139
aF-0.13663898832982235
aF-0.018990079810217268
aF-0.02479376868115551
aF-0.0854264184069234
aF-0.039431409806731044
aF0.01796357415647652
aF-0.029980165966651953
aF-0.2331712182130686
aF0.08207538625272663
aF-0.03941311824239293
aF0.09353227889193928
aF-0.0544573913908691
aF-0.01695781247929515
aF-0.023896185715724695
aF-0.02643594827328623
aF0.04815345833187941
aF-0.05560614452631983
aF-0.0613504367566014
aF-0.02361437447484945
aF-0.04079742324112901
aF0.00633593766415592
aF0.023831761841341198
aF0.049512761136163555
aF-0.0010569870574012648
aF-0.03010677303749914
aF-0.028993076089016814
aF-0.01598576859060822
aF0.10838432031748317
aF-0.07212402654478918
aF0.09900280184691836
aF0.025374971000305495
aF-0.05087875165654104
aF-0.030661166665073476
aF-0.054677597216661246
aF-0.03616186318162598
aF-0.09069670950961739
aF-0.016412153975029868
aF-0.05345254826482971
aF0.04256569529423353
aF-0.0515593065368813
aF-0.08215576664091073
aF0.022114896435454907
aF0.00327028484898488
aF0.045601409803247395
aF-0.14486344838105658
aF-0.08927345071216707
aF-0.13053982659716135
aF-0.015229487549151119
aF0.057308987763863777
aF0.05997434680417364
aF-0.055446725740234744
aF0.00633593766415592
aF-0.050536125369104554
aF-0.038851598331480115
aF-0.0015112761293185977
aF-0.025174740112598182
aF-0.05733136478374742
aF0.0
aF0.06906829860480275
aF0.03219510209782378
aF-0.02548775281642107
aF-0.02033805223427204
aF-0.08064052177911361
aF-0.01384759292945855
aF-0.013403681893892287
aF-0.035206307542748366
aF0.08821996110852463
aF-0.039375508095244614
aF-0.028707147823858952
aF0.023831761841341198
aF0.0
aF-0.018680764793773053
aF0.01898080871380482
aF-0.06768981700253192
aF-0.028186143188654804
aF-0.05199356878219704
aF-0.016759676129885197
aF-0.028974289203570813
aF-0.03613259361560429
aF-0.013888804786801425
aF-0.017550963988203654
aF-0.02555935836341413
aF0.03756633338044018
aF-0.025567495426087772
aF0.053667066381148536
aF-0.045829967755390284
aF-0.09647352235623613
aF-0.023518098668932227
aF-0.04374262425093056
aF-0.04572766068433352
aF-0.14689868358006247
aF-0.09043301127503076
aF0.06446748856722537
aF-0.1065188496206542
aF-0.07354353265550846
aF-0.021648029176802565
aF-0.032013886329067175
aF0.1680843581497621
aF0.005497335623160937
aF0.06952880706750958
aF0.05483366074795637
aF-0.1654260954058768
aF-0.09264140261455558
aF-0.018911525192616116
aF-0.04670221227709698
aF-0.058141042816554474
aF0.05978141974860761
aF-0.11598734947333522
aF0.0
aF0.004206741757413418
aF0.004353675998471685
aF-0.05750224941926841
aF0.02902113879322423
aF-0.03958931572033586
aF0.053780051541294296
aF-0.024033665979203762
aF-0.06665110865201543
aF-0.0019601161247356615
aF-0.05011562421068098
aF0.05819890656142729
aF0.09674631088770874
aF-0.03466889668931338
aF-0.04438757269793321
aF-0.11771775339156108
aF-0.05802950024495246
aF-0.09339424448254449
aF-0.0024520649057612033
aF-0.04044337881969171
aF-0.029713437337770626
aF0.0
aF0.08821996110852463
aF-0.05118938738480992
aF-0.02862137477237598
aF-0.0984446383716065
aF-0.033693867534644074
aF-0.01824847432644206
aF0.0004879642963891075
aF-0.06983899773170274
aF-0.07435329909772036
aF-0.09259744904061999
aF-0.13031287937309946
aF0.047936463156754656
aF0.08638017436235243
aF-0.06863680734824931
aF-0.07099262094141884
aF-0.060315737147249616
aF0.026908456492288867
aF-0.0481155748672857
aF0.00404825652935243
aF-0.10732774256312942
aF-0.058156802939048964
aF-0.01702617937981543
aF-0.03787627235682634
aF0.07868830213216071
aF-0.03973861306618938
aF0.11466021554570727
aF-0.007828779170184456
aF-0.046258668594032194
aF0.06801903366456395
aF0.11681463069186401
aF-0.04237239716258713
aF-0.12836599770974094
aF-0.015653693749322895
aF-0.0183941140604358
aF-0.16292501912745644
aF0.056061705460959
aF-0.02892282111600415
aF0.07609873134657934
aF-0.06875869894946172
aF0.0
aF-0.05527573342381429
aF-0.08488699786563636
aF-0.044865408287472576
aF-0.015233731607905447
aF0.011274414472138816
aF-0.066162107829838
aF-0.0231622472701076
aF-0.0494025691959705
aF-0.042065835588027664
aF-0.05850093599488547
aF-0.15742844259245978
aF-0.01224732950033512
aF-0.03119870168297704
aF-0.00696480672924709
aF0.0
aF-0.17644991747866753
aF-0.015910605689119454
aF-0.024586125067948276
aF0.05946655303167384
aF-0.027516615443550118
aF0.08110698460610616
aF0.01982716909801869
aF-0.041006683981741066
aF-0.08271496890206814
aF-0.05741623000164177
aF-0.03882422021725074
aF0.03764591640609841
aF0.02017609789296937
aF0.008023053489735633
aF-0.09632704478401405
aF-0.028531835740092656
aF-0.05011992191805417
aF-0.06902407337979774
aF-0.03189323172007337
aF-0.008212702546595382
aF0.0009224095679863724
aF-0.03179491808372746
aF-0.05618071464074655
aF-0.19449458114218163
aF-0.047562189374751415
aF-0.053456694590676285
aF0.0
aF0.019128293119893256
aF-0.17935153816583627
aF-0.008623310589072291
aF-0.07249839675755261
aF-0.06379260812114446
aF-0.015994488045799695
aF-0.02769007269721526
aF-0.050448955156890546
aF-0.038851598331480115
aF-0.05122212753285451
aF0.1923756709046458
aF0.0847961733474619
aF0.01503014597553848
aF0.07459359020735937
aF-0.0064003416773589505
aF-0.026039402184701323
aF0.0556509054388171
aF-0.017544142518857147
aF-0.1099808794926612
aF-0.07858761260651694
aF-0.05326855559607014
aF-0.03405323594781713
aF-0.03207885798841296
aF-0.07712670744729161
aF0.10667015941526542
aF-0.07698943724758807
aF0.0
aF-0.259898546735844
aF-0.061580456577476295
aF-0.009832360748417516
aF-0.08351711692347825
aF0.07437449705448441
aF-0.04261611325779362
aF0.05659322618389216
aF-0.07348177120715932
aF-0.016663755532877373
aF0.06886891894602566
aF0.07274078128468214
aF0.0
aF-0.018753707669318203
aF0.03246369785223115
aF-0.05155864552807464
aF-0.07414052488899346
aF-0.027022145655230256
aF0.05121972016584402
aF0.05499054794641373
aF-0.05323877935976526
aF-0.08503638994908182
aF-0.059838982578713604
aF0.05888098715546385
aF-0.029992845566476762
aF-0.20860878460931442
aF0.0
aF-0.010562112249796583
aF0.059481260678060234
aF-0.05155864552807464
aF0.0301532618839789
aF-0.005223679515058055
aF-0.04273767682489673
aF-0.052762580941358064
aF-0.028326712883668618
aF0.10658192562068802
aF-0.06863680734849051
aF-0.04695316895348579
aF-0.024405899545476808
aF-0.026351585309851374
aF-0.015222536566797111
aF-0.03598410004331796
aF0.05619045007379038
aF-0.04217372087302136
aF-0.04598734936055963
aF0.0011366622353700864
aF0.0013499294402327727
aF-0.06269605943728068
aF0.059490090934371236
aF0.06422467592162097
aF-0.024582581783013074
aF0.0
aF0.053228760731577715
aF-0.055073096994915964
aF0.07678470575141923
aF-0.041786897607982834
aF-0.043808220932773694
aF-0.025032682141094737
aF0.0419479189922521
aF0.0614452809438733
aF0.10345527836144108
aF0.007334830363621175
aF-0.07099262094141884
aF-0.053385985269924385
aF-0.09259744904061999
aF0.0
aF-0.04510055305983578
aF0.06906635400475868
aF-0.09037517555298452
aF-0.12836599770974094
aF-0.03515357287170368
aF0.0732777803617245
aF0.013331419826018395
aF0.0058170146490173205
aF-0.05155864552807464
aF-0.03692741669164188
aF0.1419331861095736
aF0.06649428876093354
aF0.027353994328596587
aF-0.11482255767854825
aF-0.01224732950033512
aF0.03224722439358582
aF-0.07105271781487242
aF-0.08918532837741522
aF-0.02625937848785952
aF-0.049633447020091516
aF-0.12771140148217788
aF-0.044186112380708895
aF-0.017547064826759894
aF-0.006601185085347932
aF-0.06153409211270611
aF-0.0037637688546173515
aF0.0
aF-0.054890040640416214
aF0.024482774661931467
aF0.012952607793515387
aF-0.07696358962037889
aF0.05908047725615311
aF0.047966371987547274
aF-0.2173904556561118
aF-0.04773727783728554
aF0.0
aF0.009186181425268797
aF-0.021985382246089813
aF0.04530472837359467
aF-0.14526353416298377
aF0.0
aF0.05716337873304031
aF0.0028919925892321183
aF-0.03369224028189563
aF-0.0320270003856216
aF0.05656173198209764
aF-0.05886629064780252
aF-0.018956564395075554
aF0.0648325235611127
aF-0.08815725630490898
aF-0.038112346615604774
aF0.0
aF0.0
asb.